target datalayout = "e-m:e-p270:32:32-p271:32:32-p272:64:64-i64:64-i128:128-f80:128-n8:16:32:64-S128"
target triple = "x86_64-pc-linux-gnu"

%struct.H5FD_multi_t = type { %struct.H5FD_t, %struct.H5FD_multi_fapl_t, [7 x i64], [7 x ptr], [7 x i64], i32, ptr }
%struct.H5FD_t = type { i64, ptr, i64, i32, i64, i64, i64, i64, i64, i8 }
%struct.H5FD_multi_fapl_t = type { [7 x i32], [7 x i64], [7 x ptr], [7 x i64], i8 }

@.str.1 = private unnamed_addr constant [103 x i8] c"generated/home/dtcxzyw/WorkSpace/Projects/compilers/llvm-opt-benchmark/bench/hdf5/hdf5/src/H5FDmulti.c\00", align 1
@H5_libinit_g = external global i8, align 1
@H5_libterm_g = external global i8, align 1
@H5E_ERR_CLS_g = external global i64, align 8
@H5E_VFL_g = external global i64, align 8
@__func__.H5FD_multi_unlock = private unnamed_addr constant [18 x i8] c"H5FD_multi_unlock\00", align 1
@H5E_CANTUNLOCKFILE_g = external global i64, align 8
@.str.45 = private unnamed_addr constant [29 x i8] c"error unlocking member files\00", align 1

; Function Attrs: nounwind uwtable
define internal i32 @H5FD_multi_unlock(ptr noundef %0) #0 {
  %2 = alloca i32, align 4
  %3 = alloca ptr, align 8
  %4 = alloca ptr, align 8
  %5 = alloca i32, align 4
  %6 = alloca i32, align 4
  %7 = alloca i32, align 4
  store ptr %0, ptr %3, align 8, !tbaa !3
  call void @llvm.lifetime.start.p0(i64 8, ptr %4) #9
  %8 = load ptr, ptr %3, align 8, !tbaa !3
  store ptr %8, ptr %4, align 8, !tbaa !8
  call void @llvm.lifetime.start.p0(i64 4, ptr %5) #9
  store i32 0, ptr %5, align 4, !tbaa !10
  %9 = call i32 @H5Eclear2(i64 noundef 0)
  call void @llvm.lifetime.start.p0(i64 4, ptr %6) #9
  store i32 0, ptr %6, align 4, !tbaa !10
  br label %10

10:                                               ; preds = %35, %1
  %11 = load i32, ptr %6, align 4, !tbaa !10
  %12 = icmp slt i32 %11, 7
  br i1 %12, label %13, label %38

13:                                               ; preds = %10
  %14 = load ptr, ptr %4, align 8, !tbaa !8
  %15 = getelementptr inbounds nuw %struct.H5FD_multi_t, ptr %14, i32 0, i32 3
  %16 = load i32, ptr %6, align 4, !tbaa !10
  %17 = sext i32 %16 to i64
  %18 = getelementptr inbounds [7 x ptr], ptr %15, i64 0, i64 %17
  %19 = load ptr, ptr %18, align 8, !tbaa !3
  %20 = icmp ne ptr %19, null
  br i1 %20, label %21, label %34

21:                                               ; preds = %13
  %22 = load ptr, ptr %4, align 8, !tbaa !8
  %23 = getelementptr inbounds nuw %struct.H5FD_multi_t, ptr %22, i32 0, i32 3
  %24 = load i32, ptr %6, align 4, !tbaa !10
  %25 = sext i32 %24 to i64
  %26 = getelementptr inbounds [7 x ptr], ptr %23, i64 0, i64 %25
  %27 = load ptr, ptr %26, align 8, !tbaa !3
  %28 = call i32 @H5FDunlock(ptr noundef %27)
  %29 = icmp slt i32 %28, 0
  br i1 %29, label %30, label %33

30:                                               ; preds = %21
  %31 = load i32, ptr %5, align 4, !tbaa !10
  %32 = add nsw i32 %31, 1
  store i32 %32, ptr %5, align 4, !tbaa !10
  br label %33

33:                                               ; preds = %30, %21
  br label %34

34:                                               ; preds = %33, %13
  br label %35

35:                                               ; preds = %34
  %36 = load i32, ptr %6, align 4, !tbaa !10
  %37 = add nsw i32 %36, 1
  store i32 %37, ptr %6, align 4, !tbaa !10
  br label %10, !llvm.loop !70

38:                                               ; preds = %10
  call void @llvm.lifetime.end.p0(i64 4, ptr %6) #9
  %39 = load i32, ptr %5, align 4, !tbaa !10
  %40 = icmp ne i32 %39, 0
  br i1 %40, label %41, label %103

41:                                               ; preds = %38
  br label %42

42:                                               ; preds = %41
  %43 = load i8, ptr @H5_libinit_g, align 1, !tbaa !22, !range !24, !noundef !25
  %44 = trunc i8 %43 to i1
  br i1 %44, label %49, label %45

45:                                               ; preds = %42
  %46 = load i8, ptr @H5_libterm_g, align 1, !tbaa !22, !range !24, !noundef !25
  %47 = trunc i8 %46 to i1
  %48 = xor i1 %47, true
  br label %49

49:                                               ; preds = %45, %42
  %50 = phi i1 [ false, %42 ], [ %48, %45 ]
  %51 = xor i1 %50, true
  %52 = xor i1 %51, true
  %53 = zext i1 %52 to i32
  %54 = sext i32 %53 to i64
  %55 = call i64 @llvm.expect.i64(i64 %54, i64 0)
  %56 = icmp ne i64 %55, 0
  br i1 %56, label %57, label %59

57:                                               ; preds = %49
  %58 = call i32 @H5open()
  br label %60

59:                                               ; preds = %49
  br label %60

60:                                               ; preds = %59, %57
  %61 = load i64, ptr @H5E_ERR_CLS_g, align 8, !tbaa !12
  %62 = load i8, ptr @H5_libinit_g, align 1, !tbaa !22, !range !24, !noundef !25
  %63 = trunc i8 %62 to i1
  br i1 %63, label %68, label %64

64:                                               ; preds = %60
  %65 = load i8, ptr @H5_libterm_g, align 1, !tbaa !22, !range !24, !noundef !25
  %66 = trunc i8 %65 to i1
  %67 = xor i1 %66, true
  br label %68

68:                                               ; preds = %64, %60
  %69 = phi i1 [ false, %60 ], [ %67, %64 ]
  %70 = xor i1 %69, true
  %71 = xor i1 %70, true
  %72 = zext i1 %71 to i32
  %73 = sext i32 %72 to i64
  %74 = call i64 @llvm.expect.i64(i64 %73, i64 0)
  %75 = icmp ne i64 %74, 0
  br i1 %75, label %76, label %78

76:                                               ; preds = %68
  %77 = call i32 @H5open()
  br label %79

78:                                               ; preds = %68
  br label %79

79:                                               ; preds = %78, %76
  %80 = load i64, ptr @H5E_VFL_g, align 8, !tbaa !12
  %81 = load i8, ptr @H5_libinit_g, align 1, !tbaa !22, !range !24, !noundef !25
  %82 = trunc i8 %81 to i1
  br i1 %82, label %87, label %83

83:                                               ; preds = %79
  %84 = load i8, ptr @H5_libterm_g, align 1, !tbaa !22, !range !24, !noundef !25
  %85 = trunc i8 %84 to i1
  %86 = xor i1 %85, true
  br label %87

87:                                               ; preds = %83, %79
  %88 = phi i1 [ false, %79 ], [ %86, %83 ]
  %89 = xor i1 %88, true
  %90 = xor i1 %89, true
  %91 = zext i1 %90 to i32
  %92 = sext i32 %91 to i64
  %93 = call i64 @llvm.expect.i64(i64 %92, i64 0)
  %94 = icmp ne i64 %93, 0
  br i1 %94, label %95, label %97

95:                                               ; preds = %87
  %96 = call i32 @H5open()
  br label %98

97:                                               ; preds = %87
  br label %98

98:                                               ; preds = %97, %95
  %99 = load i64, ptr @H5E_CANTUNLOCKFILE_g, align 8, !tbaa !12
  %100 = call i32 (i64, ptr, ptr, i32, i64, i64, i64, ptr, ...) @H5Epush2(i64 noundef 0, ptr noundef @.str.1, ptr noundef @__func__.H5FD_multi_unlock, i32 noundef 1844, i64 noundef %61, i64 noundef %80, i64 noundef %99, ptr noundef @.str.45)
  store i32 -1, ptr %2, align 4
  store i32 1, ptr %7, align 4
  br label %104

101:                                              ; No predecessors!
  br label %102

102:                                              ; preds = %101
  br label %103

103:                                              ; preds = %102, %38
  store i32 0, ptr %2, align 4
  store i32 1, ptr %7, align 4
  br label %104

104:                                              ; preds = %103, %98
  call void @llvm.lifetime.end.p0(i64 4, ptr %5) #9
  call void @llvm.lifetime.end.p0(i64 8, ptr %4) #9
  %105 = load i32, ptr %2, align 4
  ret i32 %105
}