; Function Attrs: nounwind uwtable
define internal range(i32 -1, 1) i32 @H5FD_multi_unlock(ptr noundef readonly captures(none) %0) #0 {
  %2 = tail call i32 @H5Eclear2(i64 noundef 0) #15
  %3 = getelementptr inbounds nuw i8, ptr %0, i64 344
  br label %4

4:                                                ; preds = %1, %10
  %indvars.iv = phi i64 [ 0, %1 ], [ %indvars.iv.next, %10 ]
  %.0913 = phi i32 [ 0, %1 ], [ %.1, %10 ]
  %5 = getelementptr inbounds nuw [7 x ptr], ptr %3, i64 0, i64 %indvars.iv
  %6 = load ptr, ptr %5, align 8, !tbaa !15
  %.not12 = icmp eq ptr %6, null
  br i1 %.not12, label %10, label %7

7:                                                ; preds = %4
  %8 = tail call i32 @H5FDunlock(ptr noundef nonnull %6) #15
  %9 = lshr i32 %8, 31
  %spec.select = add i32 %9, %.0913
  br label %10

10:                                               ; preds = %7, %4
  %.1 = phi i32 [ %.0913, %4 ], [ %spec.select, %7 ]
  %indvars.iv.next = add nuw nsw i64 %indvars.iv, 1
  %exitcond.not = icmp eq i64 %indvars.iv.next, 7
  br i1 %exitcond.not, label %11, label %4, !llvm.loop !64

11:                                               ; preds = %10
  %.not = icmp eq i32 %.1, 0
  br i1 %.not, label %41, label %12

12:                                               ; preds = %11
  %13 = load i8, ptr @H5_libinit_g, align 1, !tbaa !18, !range !20, !noundef !21
  %14 = trunc nuw i8 %13 to i1
  %15 = load i8, ptr @H5_libterm_g, align 1, !range !20
  %16 = trunc nuw i8 %15 to i1
  %17 = select i1 %14, i1 true, i1 %16
  br i1 %17, label %20, label %18, !prof !22

18:                                               ; preds = %12
  %19 = tail call i32 @H5open() #15
  %.pre = load i8, ptr @H5_libinit_g, align 1, !tbaa !18, !range !20
  %.pre16 = load i8, ptr @H5_libterm_g, align 1, !range !20
  br label %20

20:                                               ; preds = %12, %18
  %21 = phi i8 [ %15, %12 ], [ %.pre16, %18 ]
  %22 = phi i8 [ %13, %12 ], [ %.pre, %18 ]
  %23 = load i64, ptr @H5E_ERR_CLS_g, align 8, !tbaa !23
  %24 = trunc nuw i8 %22 to i1
  %25 = trunc nuw i8 %21 to i1
  %26 = select i1 %24, i1 true, i1 %25
  br i1 %26, label %29, label %27, !prof !22

27:                                               ; preds = %20
  %28 = tail call i32 @H5open() #15
  %.pre17 = load i8, ptr @H5_libinit_g, align 1, !tbaa !18, !range !20
  %.pre18 = load i8, ptr @H5_libterm_g, align 1, !range !20
  br label %29

29:                                               ; preds = %20, %27
  %30 = phi i8 [ %21, %20 ], [ %.pre18, %27 ]
  %31 = phi i8 [ %22, %20 ], [ %.pre17, %27 ]
  %32 = load i64, ptr @H5E_VFL_g, align 8, !tbaa !23
  %33 = trunc nuw i8 %31 to i1
  %34 = trunc nuw i8 %30 to i1
  %35 = select i1 %33, i1 true, i1 %34
  br i1 %35, label %38, label %36, !prof !22

36:                                               ; preds = %29
  %37 = tail call i32 @H5open() #15
  br label %38

38:                                               ; preds = %29, %36
  %39 = load i64, ptr @H5E_CANTUNLOCKFILE_g, align 8, !tbaa !23
  %40 = tail call i32 (i64, ptr, ptr, i32, i64, i64, i64, ptr, ...) @H5Epush2(i64 noundef 0, ptr noundef nonnull @.str.1, ptr noundef nonnull @__func__.H5FD_multi_unlock, i32 noundef 1844, i64 noundef %23, i64 noundef %32, i64 noundef %39, ptr noundef nonnull @.str.45) #15
  br label %41

41:                                               ; preds = %11, %38
  %.010 = phi i32 [ -1, %38 ], [ 0, %11 ]
  ret i32 %.010
}